; Function Attrs: nounwind uwtable
define ptr @l_Lean_Compiler_LCNF_Simp_eraseLetDecl___boxed(ptr noundef %0, ptr noundef %1, ptr noundef %2, ptr noundef %3, ptr noundef %4, ptr noundef %5, ptr noundef %6, ptr noundef %7, ptr noundef %8) local_unnamed_addr #0 {
  %10 = tail call ptr @l_Lean_Compiler_LCNF_eraseLetDecl(ptr noundef %0, ptr noundef %4, ptr noundef %5, ptr noundef %6, ptr noundef %7, ptr noundef %8) #5
  %11 = getelementptr inbounds nuw i8, ptr %10, i64 16
  %12 = load ptr, ptr %11, align 8, !tbaa !9
  %13 = ptrtoint ptr %12 to i64
  %14 = and i64 %13, 1
  %.not.i39 = icmp eq i64 %14, 0
  br i1 %.not.i39, label %15, label %lean_inc.exit.i

15:                                               ; preds = %9
  %.val.i.i = load i32, ptr %12, align 4, !tbaa !4
  %16 = icmp sgt i32 %.val.i.i, 0
  br i1 %16, label %17, label %19, !prof !13

17:                                               ; preds = %15
  %18 = add nuw i32 %.val.i.i, 1
  store i32 %18, ptr %12, align 4, !tbaa !4
  br label %lean_inc.exit.i

19:                                               ; preds = %15
  %.not.i17.i = icmp eq i32 %.val.i.i, 0
  br i1 %.not.i17.i, label %lean_inc.exit.i, label %20

20:                                               ; preds = %19
  tail call void @lean_inc_ref_cold(ptr noundef nonnull %12) #5
  br label %lean_inc.exit.i

lean_inc.exit.i:                                  ; preds = %20, %19, %17, %9
  %21 = ptrtoint ptr %10 to i64
  %22 = and i64 %21, 1
  %.not18.i = icmp eq i64 %22, 0
  br i1 %.not18.i, label %23, label %l_Lean_Compiler_LCNF_Simp_eraseLetDecl.exit

23:                                               ; preds = %lean_inc.exit.i
  %24 = load i32, ptr %10, align 4, !tbaa !4
  %25 = icmp sgt i32 %24, 1
  br i1 %25, label %26, label %28, !prof !13

26:                                               ; preds = %23
  %27 = add nsw i32 %24, -1
  store i32 %27, ptr %10, align 4, !tbaa !4
  br label %l_Lean_Compiler_LCNF_Simp_eraseLetDecl.exit

28:                                               ; preds = %23
  %.not.i.i = icmp eq i32 %24, 0
  br i1 %.not.i.i, label %l_Lean_Compiler_LCNF_Simp_eraseLetDecl.exit, label %29

29:                                               ; preds = %28
  tail call void @lean_dec_ref_cold(ptr noundef nonnull %10) #5
  br label %l_Lean_Compiler_LCNF_Simp_eraseLetDecl.exit

l_Lean_Compiler_LCNF_Simp_eraseLetDecl.exit:      ; preds = %lean_inc.exit.i, %26, %28, %29
  %30 = tail call ptr @l_Lean_Compiler_LCNF_Simp_markSimplified___rarg(ptr noundef %2, ptr readnone poison, ptr poison, ptr poison, ptr poison, ptr poison, ptr noundef %12)
  %31 = ptrtoint ptr %7 to i64
  %32 = and i64 %31, 1
  %.not = icmp eq i64 %32, 0
  br i1 %.not, label %33, label %lean_dec.exit24

33:                                               ; preds = %l_Lean_Compiler_LCNF_Simp_eraseLetDecl.exit
  %34 = load i32, ptr %7, align 4, !tbaa !4
  %35 = icmp sgt i32 %34, 1
  br i1 %35, label %36, label %38, !prof !13

36:                                               ; preds = %33
  %37 = add nsw i32 %34, -1
  store i32 %37, ptr %7, align 4, !tbaa !4
  br label %lean_dec.exit24

38:                                               ; preds = %33
  %.not.i = icmp eq i32 %34, 0
  br i1 %.not.i, label %lean_dec.exit24, label %39

39:                                               ; preds = %38
  tail call void @lean_dec_ref_cold(ptr noundef nonnull %7) #5
  br label %lean_dec.exit24

lean_dec.exit24:                                  ; preds = %39, %38, %36, %l_Lean_Compiler_LCNF_Simp_eraseLetDecl.exit
  %40 = ptrtoint ptr %6 to i64
  %41 = and i64 %40, 1
  %.not40 = icmp eq i64 %41, 0
  br i1 %.not40, label %42, label %lean_dec.exit23

42:                                               ; preds = %lean_dec.exit24
  %43 = load i32, ptr %6, align 4, !tbaa !4
  %44 = icmp sgt i32 %43, 1
  br i1 %44, label %45, label %47, !prof !13

45:                                               ; preds = %42
  %46 = add nsw i32 %43, -1
  store i32 %46, ptr %6, align 4, !tbaa !4
  br label %lean_dec.exit23

47:                                               ; preds = %42
  %.not.i25 = icmp eq i32 %43, 0
  br i1 %.not.i25, label %lean_dec.exit23, label %48

48:                                               ; preds = %47
  tail call void @lean_dec_ref_cold(ptr noundef nonnull %6) #5
  br label %lean_dec.exit23

lean_dec.exit23:                                  ; preds = %48, %47, %45, %lean_dec.exit24
  %49 = ptrtoint ptr %5 to i64
  %50 = and i64 %49, 1
  %.not41 = icmp eq i64 %50, 0
  br i1 %.not41, label %51, label %lean_dec.exit22

51:                                               ; preds = %lean_dec.exit23
  %52 = load i32, ptr %5, align 4, !tbaa !4
  %53 = icmp sgt i32 %52, 1
  br i1 %53, label %54, label %56, !prof !13

54:                                               ; preds = %51
  %55 = add nsw i32 %52, -1
  store i32 %55, ptr %5, align 4, !tbaa !4
  br label %lean_dec.exit22

56:                                               ; preds = %51
  %.not.i27 = icmp eq i32 %52, 0
  br i1 %.not.i27, label %lean_dec.exit22, label %57

57:                                               ; preds = %56
  tail call void @lean_dec_ref_cold(ptr noundef nonnull %5) #5
  br label %lean_dec.exit22

lean_dec.exit22:                                  ; preds = %57, %56, %54, %lean_dec.exit23
  %58 = ptrtoint ptr %4 to i64
  %59 = and i64 %58, 1
  %.not42 = icmp eq i64 %59, 0
  br i1 %.not42, label %60, label %lean_dec.exit21

60:                                               ; preds = %lean_dec.exit22
  %61 = load i32, ptr %4, align 4, !tbaa !4
  %62 = icmp sgt i32 %61, 1
  br i1 %62, label %63, label %65, !prof !13

63:                                               ; preds = %60
  %64 = add nsw i32 %61, -1
  store i32 %64, ptr %4, align 4, !tbaa !4
  br label %lean_dec.exit21

65:                                               ; preds = %60
  %.not.i29 = icmp eq i32 %61, 0
  br i1 %.not.i29, label %lean_dec.exit21, label %66

66:                                               ; preds = %65
  tail call void @lean_dec_ref_cold(ptr noundef nonnull %4) #5
  br label %lean_dec.exit21

lean_dec.exit21:                                  ; preds = %66, %65, %63, %lean_dec.exit22
  %67 = ptrtoint ptr %3 to i64
  %68 = and i64 %67, 1
  %.not43 = icmp eq i64 %68, 0
  br i1 %.not43, label %69, label %lean_dec.exit20

69:                                               ; preds = %lean_dec.exit21
  %70 = load i32, ptr %3, align 4, !tbaa !4
  %71 = icmp sgt i32 %70, 1
  br i1 %71, label %72, label %74, !prof !13

72:                                               ; preds = %69
  %73 = add nsw i32 %70, -1
  store i32 %73, ptr %3, align 4, !tbaa !4
  br label %lean_dec.exit20

74:                                               ; preds = %69
  %.not.i31 = icmp eq i32 %70, 0
  br i1 %.not.i31, label %lean_dec.exit20, label %75

75:                                               ; preds = %74
  tail call void @lean_dec_ref_cold(ptr noundef nonnull %3) #5
  br label %lean_dec.exit20

lean_dec.exit20:                                  ; preds = %75, %74, %72, %lean_dec.exit21
  %76 = ptrtoint ptr %2 to i64
  %77 = and i64 %76, 1
  %.not44 = icmp eq i64 %77, 0
  br i1 %.not44, label %78, label %lean_dec.exit19

78:                                               ; preds = %lean_dec.exit20
  %79 = load i32, ptr %2, align 4, !tbaa !4
  %80 = icmp sgt i32 %79, 1
  br i1 %80, label %81, label %83, !prof !13

81:                                               ; preds = %78
  %82 = add nsw i32 %79, -1
  store i32 %82, ptr %2, align 4, !tbaa !4
  br label %lean_dec.exit19

83:                                               ; preds = %78
  %.not.i33 = icmp eq i32 %79, 0
  br i1 %.not.i33, label %lean_dec.exit19, label %84

84:                                               ; preds = %83
  tail call void @lean_dec_ref_cold(ptr noundef nonnull %2) #5
  br label %lean_dec.exit19

lean_dec.exit19:                                  ; preds = %84, %83, %81, %lean_dec.exit20
  %85 = ptrtoint ptr %1 to i64
  %86 = and i64 %85, 1
  %.not45 = icmp eq i64 %86, 0
  br i1 %.not45, label %87, label %lean_dec.exit18

87:                                               ; preds = %lean_dec.exit19
  %88 = load i32, ptr %1, align 4, !tbaa !4
  %89 = icmp sgt i32 %88, 1
  br i1 %89, label %90, label %92, !prof !13

90:                                               ; preds = %87
  %91 = add nsw i32 %88, -1
  store i32 %91, ptr %1, align 4, !tbaa !4
  br label %lean_dec.exit18

92:                                               ; preds = %87
  %.not.i35 = icmp eq i32 %88, 0
  br i1 %.not.i35, label %lean_dec.exit18, label %93

93:                                               ; preds = %92
  tail call void @lean_dec_ref_cold(ptr noundef nonnull %1) #5
  br label %lean_dec.exit18

lean_dec.exit18:                                  ; preds = %93, %92, %90, %lean_dec.exit19
  %94 = ptrtoint ptr %0 to i64
  %95 = and i64 %94, 1
  %.not46 = icmp eq i64 %95, 0
  br i1 %.not46, label %96, label %lean_dec.exit

96:                                               ; preds = %lean_dec.exit18
  %97 = load i32, ptr %0, align 4, !tbaa !4
  %98 = icmp sgt i32 %97, 1
  br i1 %98, label %99, label %101, !prof !13

99:                                               ; preds = %96
  %100 = add nsw i32 %97, -1
  store i32 %100, ptr %0, align 4, !tbaa !4
  br label %lean_dec.exit

101:                                              ; preds = %96
  %.not.i37 = icmp eq i32 %97, 0
  br i1 %.not.i37, label %lean_dec.exit, label %102

102:                                              ; preds = %101
  tail call void @lean_dec_ref_cold(ptr noundef nonnull %0) #5
  br label %lean_dec.exit

lean_dec.exit:                                    ; preds = %102, %101, %99, %lean_dec.exit18
  ret ptr %30
}